target datalayout = "e-m:e-p270:32:32-p271:32:32-p272:64:64-i64:64-i128:128-f80:128-n8:16:32:64-S128"
target triple = "x86_64-unknown-linux-gnu"

%struct.Packet = type { ptr, %union.anon, ptr, i32, i64, i32, i32, i32, i32, i8, i16, i16, i8 }
%union.anon = type { ptr }

; Function Attrs: nounwind sspstrong uwtable
define internal i64 @qemu_clock_get_ms(i32 noundef %type) #0 {
entry:
  %type.addr = alloca i32, align 4
  store i32 %type, ptr %type.addr, align 4
  %0 = load i32, ptr %type.addr, align 4
  %call = call i64 @qemu_clock_get_ns(i32 noundef %0)
  %div = sdiv i64 %call, 1000000
  ret i64 %div
}

; Function Attrs: nounwind sspstrong uwtable
define dso_local ptr @packet_new_nocopy(ptr noundef %data, i32 noundef %size, i32 noundef %vnet_hdr_len) #0 {
entry:
  %data.addr = alloca ptr, align 8
  %size.addr = alloca i32, align 4
  %vnet_hdr_len.addr = alloca i32, align 4
  %pkt = alloca ptr, align 8
  store ptr %data, ptr %data.addr, align 8
  store i32 %size, ptr %size.addr, align 4
  store i32 %vnet_hdr_len, ptr %vnet_hdr_len.addr, align 4
  %call = call noalias ptr @g_slice_alloc0(i64 noundef 64) #13
  store ptr %call, ptr %pkt, align 8
  %0 = load ptr, ptr %data.addr, align 8
  %1 = load ptr, ptr %pkt, align 8
  %data1 = getelementptr inbounds %struct.Packet, ptr %1, i32 0, i32 0
  store ptr %0, ptr %data1, align 8
  %2 = load i32, ptr %size.addr, align 4
  %3 = load ptr, ptr %pkt, align 8
  %size2 = getelementptr inbounds %struct.Packet, ptr %3, i32 0, i32 3
  store i32 %2, ptr %size2, align 8
  %call3 = call i64 @qemu_clock_get_ms(i32 noundef 2)
  %4 = load ptr, ptr %pkt, align 8
  %creation_ms = getelementptr inbounds %struct.Packet, ptr %4, i32 0, i32 4
  store i64 %call3, ptr %creation_ms, align 8
  %5 = load i32, ptr %vnet_hdr_len.addr, align 4
  %6 = load ptr, ptr %pkt, align 8
  %vnet_hdr_len4 = getelementptr inbounds %struct.Packet, ptr %6, i32 0, i32 5
  store i32 %5, ptr %vnet_hdr_len4, align 8
  %7 = load ptr, ptr %pkt, align 8
  ret ptr %7
}