; Function Attrs: nounwind sspstrong uwtable
define dso_local noalias noundef ptr @packet_new_nocopy(ptr noundef %data, i32 noundef %size, i32 noundef %vnet_hdr_len) local_unnamed_addr #2 {
entry:
  %call = tail call noalias dereferenceable_or_null(64) ptr @g_slice_alloc0(i64 noundef 64) #17
  store ptr %data, ptr %call, align 8
  %size2 = getelementptr inbounds nuw i8, ptr %call, i64 24
  store i32 %size, ptr %size2, align 8
  %call.i = tail call i64 @qemu_clock_get_ns(i32 noundef 2) #15
  %div.i = sdiv i64 %call.i, 1000000
  %creation_ms = getelementptr inbounds nuw i8, ptr %call, i64 32
  store i64 %div.i, ptr %creation_ms, align 8
  %vnet_hdr_len4 = getelementptr inbounds nuw i8, ptr %call, i64 40
  store i32 %vnet_hdr_len, ptr %vnet_hdr_len4, align 8
  ret ptr %call
}